target datalayout = "e-m:e-p270:32:32-p271:32:32-p272:64:64-i64:64-i128:128-f80:128-n8:16:32:64-S128"
target triple = "x86_64-pc-linux-gnu"

%class.LabelStack = type { %class.QLabel, i32, %class.QList, i8, %class.QElapsedTimer, %class.QTimer }
%class.QLabel = type { %class.QFrame }
%class.QFrame = type { %class.QWidget }
%class.QWidget = type { %class.QObject, %class.QPaintDevice.base, ptr }
%class.QObject = type { ptr, %class.QScopedPointer }
%class.QScopedPointer = type { ptr }
%class.QPaintDevice.base = type <{ ptr, i16 }>
%class.QList = type { %struct.QArrayDataPointer }
%struct.QArrayDataPointer = type { ptr, ptr, i64 }
%class.QElapsedTimer = type { i64, i64 }
%class.QTimer = type { %class.QObject }

; Function Attrs: mustprogress null_pointer_is_valid sspstrong uwtable
define void @_ZN10LabelStack21updateTemporaryStatusEv(ptr noundef align 8 dereferenceable_or_null(112) %0) #0 align 2 {
  %2 = alloca ptr, align 8
  %3 = alloca i32, align 4
  %4 = alloca i32, align 4
  store ptr %0, ptr %2, align 8
  %5 = load ptr, ptr %2, align 8
  %6 = getelementptr inbounds nuw %class.LabelStack, ptr %5, i32 0, i32 4
  %7 = call noundef i64 @_ZNK13QElapsedTimer7elapsedEv(ptr noundef align 8 dereferenceable_or_null(16) %6) #19
  %8 = icmp sge i64 %7, 9000
  br i1 %8, label %9, label %13

9:                                                ; preds = %1
  %10 = getelementptr inbounds nuw %class.LabelStack, ptr %5, i32 0, i32 1
  %11 = load i32, ptr %10, align 8
  call void @_ZN10LabelStack7popTextEi(ptr noundef align 8 dereferenceable_or_null(112) %5, i32 noundef %11)
  call void @_ZN10LabelStack20toggleTemporaryFlashEb(ptr noundef align 8 dereferenceable_or_null(112) %5, i1 noundef zeroext false)
  %12 = getelementptr inbounds nuw %class.LabelStack, ptr %5, i32 0, i32 5
  call void @_ZN6QTimer4stopEv(ptr noundef align 8 dereferenceable_or_null(16) %12)
  br label %35

13:                                               ; preds = %1
  call void @llvm.lifetime.start.p0(i64 4, ptr %3) #19
  store i32 6, ptr %3, align 4
  br label %14

14:                                               ; preds = %30, %13
  %15 = load i32, ptr %3, align 4
  %16 = icmp sgt i32 %15, 0
  br i1 %16, label %18, label %17

17:                                               ; preds = %14
  store i32 2, ptr %4, align 4
  br label %33

18:                                               ; preds = %14
  %19 = getelementptr inbounds nuw %class.LabelStack, ptr %5, i32 0, i32 4
  %20 = call noundef i64 @_ZNK13QElapsedTimer7elapsedEv(ptr noundef align 8 dereferenceable_or_null(16) %19) #19
  %21 = load i32, ptr %3, align 4
  %22 = mul i32 200, %21
  %23 = sext i32 %22 to i64
  %24 = icmp sge i64 %20, %23
  br i1 %24, label %25, label %29

25:                                               ; preds = %18
  %26 = load i32, ptr %3, align 4
  %27 = srem i32 %26, 2
  %28 = icmp ne i32 %27, 0
  call void @_ZN10LabelStack20toggleTemporaryFlashEb(ptr noundef align 8 dereferenceable_or_null(112) %5, i1 noundef zeroext %28)
  store i32 2, ptr %4, align 4
  br label %33

29:                                               ; preds = %18
  br label %30

30:                                               ; preds = %29
  %31 = load i32, ptr %3, align 4
  %32 = add i32 %31, -1
  store i32 %32, ptr %3, align 4
  br label %14, !llvm.loop !6

33:                                               ; preds = %25, %17
  call void @llvm.lifetime.end.p0(i64 4, ptr %3) #19
  br label %34

34:                                               ; preds = %33
  br label %35

35:                                               ; preds = %34, %9
  ret void
}