; Function Attrs: mustprogress null_pointer_is_valid sspstrong uwtable
define void @_ZN10LabelStack21updateTemporaryStatusEv(ptr noundef align 8 dereferenceable_or_null(112) %0) #0 align 2 {
  %2 = getelementptr inbounds nuw i8, ptr %0, i64 80
  %3 = tail call noundef i64 @_ZNK13QElapsedTimer7elapsedEv(ptr noundef nonnull align 8 dereferenceable_or_null(16) %2) #17
  %4 = icmp sgt i64 %3, 8999
  br i1 %4, label %5, label %.preheader

5:                                                ; preds = %1
  %6 = getelementptr inbounds nuw i8, ptr %0, i64 40
  %7 = load i32, ptr %6, align 8
  tail call void @_ZN10LabelStack7popTextEi(ptr noundef align 8 dereferenceable_or_null(112) %0, i32 noundef %7)
  tail call void @_ZN10LabelStack20toggleTemporaryFlashEb(ptr noundef align 8 dereferenceable_or_null(112) %0, i1 noundef zeroext false)
  %8 = getelementptr inbounds nuw i8, ptr %0, i64 96
  tail call void @_ZN6QTimer4stopEv(ptr noundef nonnull align 8 dereferenceable_or_null(16) %8)
  br label %.loopexit

.preheader:                                       ; preds = %1, %14
  %indvars.iv = phi i64 [ %indvars.iv.next, %14 ], [ 6, %1 ]
  %9 = tail call noundef i64 @_ZNK13QElapsedTimer7elapsedEv(ptr noundef nonnull align 8 dereferenceable_or_null(16) %2) #17
  %10 = mul nuw nsw i64 %indvars.iv, 200
  %.not = icmp slt i64 %9, %10
  br i1 %.not, label %14, label %11

11:                                               ; preds = %.preheader
  %12 = and i64 %indvars.iv, 1
  %13 = icmp ne i64 %12, 0
  tail call void @_ZN10LabelStack20toggleTemporaryFlashEb(ptr noundef align 8 dereferenceable_or_null(112) %0, i1 noundef zeroext %13)
  br label %.loopexit

14:                                               ; preds = %.preheader
  %indvars.iv.next = add nsw i64 %indvars.iv, -1
  %15 = icmp ugt i64 %indvars.iv, 1
  br i1 %15, label %.preheader, label %.loopexit, !llvm.loop !9

.loopexit:                                        ; preds = %14, %11, %5
  ret void
}